target datalayout = "e-m:e-p270:32:32-p271:32:32-p272:64:64-i64:64-i128:128-f80:128-n8:16:32:64-S128"
target triple = "x86_64-pc-linux-gnu"

%struct.mbedtls_mpi = type { ptr, i16, i16 }

; Function Attrs: nounwind uwtable
define hidden i32 @mbedtls_rsa_write_key(ptr noundef %0, ptr noundef %1, ptr noundef %2) #0 {
  %4 = alloca i32, align 4
  %5 = alloca ptr, align 8
  %6 = alloca ptr, align 8
  %7 = alloca ptr, align 8
  %8 = alloca i64, align 8
  %9 = alloca i32, align 4
  %10 = alloca %struct.mbedtls_mpi, align 8
  %11 = alloca i32, align 4
  store ptr %0, ptr %5, align 8, !tbaa !3
  store ptr %1, ptr %6, align 8, !tbaa !8
  store ptr %2, ptr %7, align 8, !tbaa !14
  call void @llvm.lifetime.start.p0(i64 8, ptr %8) #9
  store i64 0, ptr %8, align 8, !tbaa !10
  call void @llvm.lifetime.start.p0(i64 4, ptr %9) #9
  call void @llvm.lifetime.start.p0(i64 16, ptr %10) #9
  call void @mbedtls_mpi_init(ptr noundef %10)
  %12 = load ptr, ptr %5, align 8, !tbaa !3
  %13 = call i32 @mbedtls_rsa_export_crt(ptr noundef %12, ptr noundef null, ptr noundef null, ptr noundef %10)
  store i32 %13, ptr %9, align 4, !tbaa !12
  %14 = icmp ne i32 %13, 0
  br i1 %14, label %20, label %15

15:                                               ; preds = %3
  %16 = load ptr, ptr %7, align 8, !tbaa !14
  %17 = load ptr, ptr %6, align 8, !tbaa !8
  %18 = call i32 @mbedtls_asn1_write_mpi(ptr noundef %16, ptr noundef %17, ptr noundef %10)
  store i32 %18, ptr %9, align 4, !tbaa !12
  %19 = icmp slt i32 %18, 0
  br i1 %19, label %20, label %21

20:                                               ; preds = %15, %3
  br label %124

21:                                               ; preds = %15
  %22 = load i32, ptr %9, align 4, !tbaa !12
  %23 = sext i32 %22 to i64
  %24 = load i64, ptr %8, align 8, !tbaa !10
  %25 = add i64 %24, %23
  store i64 %25, ptr %8, align 8, !tbaa !10
  %26 = load ptr, ptr %5, align 8, !tbaa !3
  %27 = call i32 @mbedtls_rsa_export_crt(ptr noundef %26, ptr noundef null, ptr noundef %10, ptr noundef null)
  store i32 %27, ptr %9, align 4, !tbaa !12
  %28 = icmp ne i32 %27, 0
  br i1 %28, label %34, label %29

29:                                               ; preds = %21
  %30 = load ptr, ptr %7, align 8, !tbaa !14
  %31 = load ptr, ptr %6, align 8, !tbaa !8
  %32 = call i32 @mbedtls_asn1_write_mpi(ptr noundef %30, ptr noundef %31, ptr noundef %10)
  store i32 %32, ptr %9, align 4, !tbaa !12
  %33 = icmp slt i32 %32, 0
  br i1 %33, label %34, label %35

34:                                               ; preds = %29, %21
  br label %124

35:                                               ; preds = %29
  %36 = load i32, ptr %9, align 4, !tbaa !12
  %37 = sext i32 %36 to i64
  %38 = load i64, ptr %8, align 8, !tbaa !10
  %39 = add i64 %38, %37
  store i64 %39, ptr %8, align 8, !tbaa !10
  %40 = load ptr, ptr %5, align 8, !tbaa !3
  %41 = call i32 @mbedtls_rsa_export_crt(ptr noundef %40, ptr noundef %10, ptr noundef null, ptr noundef null)
  store i32 %41, ptr %9, align 4, !tbaa !12
  %42 = icmp ne i32 %41, 0
  br i1 %42, label %48, label %43

43:                                               ; preds = %35
  %44 = load ptr, ptr %7, align 8, !tbaa !14
  %45 = load ptr, ptr %6, align 8, !tbaa !8
  %46 = call i32 @mbedtls_asn1_write_mpi(ptr noundef %44, ptr noundef %45, ptr noundef %10)
  store i32 %46, ptr %9, align 4, !tbaa !12
  %47 = icmp slt i32 %46, 0
  br i1 %47, label %48, label %49

48:                                               ; preds = %43, %35
  br label %124

49:                                               ; preds = %43
  %50 = load i32, ptr %9, align 4, !tbaa !12
  %51 = sext i32 %50 to i64
  %52 = load i64, ptr %8, align 8, !tbaa !10
  %53 = add i64 %52, %51
  store i64 %53, ptr %8, align 8, !tbaa !10
  %54 = load ptr, ptr %5, align 8, !tbaa !3
  %55 = call i32 @mbedtls_rsa_export(ptr noundef %54, ptr noundef null, ptr noundef null, ptr noundef %10, ptr noundef null, ptr noundef null)
  store i32 %55, ptr %9, align 4, !tbaa !12
  %56 = icmp ne i32 %55, 0
  br i1 %56, label %62, label %57

57:                                               ; preds = %49
  %58 = load ptr, ptr %7, align 8, !tbaa !14
  %59 = load ptr, ptr %6, align 8, !tbaa !8
  %60 = call i32 @mbedtls_asn1_write_mpi(ptr noundef %58, ptr noundef %59, ptr noundef %10)
  store i32 %60, ptr %9, align 4, !tbaa !12
  %61 = icmp slt i32 %60, 0
  br i1 %61, label %62, label %63

62:                                               ; preds = %57, %49
  br label %124

63:                                               ; preds = %57
  %64 = load i32, ptr %9, align 4, !tbaa !12
  %65 = sext i32 %64 to i64
  %66 = load i64, ptr %8, align 8, !tbaa !10
  %67 = add i64 %66, %65
  store i64 %67, ptr %8, align 8, !tbaa !10
  %68 = load ptr, ptr %5, align 8, !tbaa !3
  %69 = call i32 @mbedtls_rsa_export(ptr noundef %68, ptr noundef null, ptr noundef %10, ptr noundef null, ptr noundef null, ptr noundef null)
  store i32 %69, ptr %9, align 4, !tbaa !12
  %70 = icmp ne i32 %69, 0
  br i1 %70, label %76, label %71

71:                                               ; preds = %63
  %72 = load ptr, ptr %7, align 8, !tbaa !14
  %73 = load ptr, ptr %6, align 8, !tbaa !8
  %74 = call i32 @mbedtls_asn1_write_mpi(ptr noundef %72, ptr noundef %73, ptr noundef %10)
  store i32 %74, ptr %9, align 4, !tbaa !12
  %75 = icmp slt i32 %74, 0
  br i1 %75, label %76, label %77

76:                                               ; preds = %71, %63
  br label %124

77:                                               ; preds = %71
  %78 = load i32, ptr %9, align 4, !tbaa !12
  %79 = sext i32 %78 to i64
  %80 = load i64, ptr %8, align 8, !tbaa !10
  %81 = add i64 %80, %79
  store i64 %81, ptr %8, align 8, !tbaa !10
  %82 = load ptr, ptr %5, align 8, !tbaa !3
  %83 = call i32 @mbedtls_rsa_export(ptr noundef %82, ptr noundef null, ptr noundef null, ptr noundef null, ptr noundef %10, ptr noundef null)
  store i32 %83, ptr %9, align 4, !tbaa !12
  %84 = icmp ne i32 %83, 0
  br i1 %84, label %90, label %85

85:                                               ; preds = %77
  %86 = load ptr, ptr %7, align 8, !tbaa !14
  %87 = load ptr, ptr %6, align 8, !tbaa !8
  %88 = call i32 @mbedtls_asn1_write_mpi(ptr noundef %86, ptr noundef %87, ptr noundef %10)
  store i32 %88, ptr %9, align 4, !tbaa !12
  %89 = icmp slt i32 %88, 0
  br i1 %89, label %90, label %91

90:                                               ; preds = %85, %77
  br label %124

91:                                               ; preds = %85
  %92 = load i32, ptr %9, align 4, !tbaa !12
  %93 = sext i32 %92 to i64
  %94 = load i64, ptr %8, align 8, !tbaa !10
  %95 = add i64 %94, %93
  store i64 %95, ptr %8, align 8, !tbaa !10
  %96 = load ptr, ptr %5, align 8, !tbaa !3
  %97 = call i32 @mbedtls_rsa_export(ptr noundef %96, ptr noundef null, ptr noundef null, ptr noundef null, ptr noundef null, ptr noundef %10)
  store i32 %97, ptr %9, align 4, !tbaa !12
  %98 = icmp ne i32 %97, 0
  br i1 %98, label %104, label %99

99:                                               ; preds = %91
  %100 = load ptr, ptr %7, align 8, !tbaa !14
  %101 = load ptr, ptr %6, align 8, !tbaa !8
  %102 = call i32 @mbedtls_asn1_write_mpi(ptr noundef %100, ptr noundef %101, ptr noundef %10)
  store i32 %102, ptr %9, align 4, !tbaa !12
  %103 = icmp slt i32 %102, 0
  br i1 %103, label %104, label %105

104:                                              ; preds = %99, %91
  br label %124

105:                                              ; preds = %99
  %106 = load i32, ptr %9, align 4, !tbaa !12
  %107 = sext i32 %106 to i64
  %108 = load i64, ptr %8, align 8, !tbaa !10
  %109 = add i64 %108, %107
  store i64 %109, ptr %8, align 8, !tbaa !10
  %110 = load ptr, ptr %5, align 8, !tbaa !3
  %111 = call i32 @mbedtls_rsa_export(ptr noundef %110, ptr noundef %10, ptr noundef null, ptr noundef null, ptr noundef null, ptr noundef null)
  store i32 %111, ptr %9, align 4, !tbaa !12
  %112 = icmp ne i32 %111, 0
  br i1 %112, label %118, label %113

113:                                              ; preds = %105
  %114 = load ptr, ptr %7, align 8, !tbaa !14
  %115 = load ptr, ptr %6, align 8, !tbaa !8
  %116 = call i32 @mbedtls_asn1_write_mpi(ptr noundef %114, ptr noundef %115, ptr noundef %10)
  store i32 %116, ptr %9, align 4, !tbaa !12
  %117 = icmp slt i32 %116, 0
  br i1 %117, label %118, label %119

118:                                              ; preds = %113, %105
  br label %124

119:                                              ; preds = %113
  %120 = load i32, ptr %9, align 4, !tbaa !12
  %121 = sext i32 %120 to i64
  %122 = load i64, ptr %8, align 8, !tbaa !10
  %123 = add i64 %122, %121
  store i64 %123, ptr %8, align 8, !tbaa !10
  br label %124

124:                                              ; preds = %119, %118, %104, %90, %76, %62, %48, %34, %20
  call void @mbedtls_mpi_free(ptr noundef %10)
  %125 = load i32, ptr %9, align 4, !tbaa !12
  %126 = icmp slt i32 %125, 0
  br i1 %126, label %127, label %129

127:                                              ; preds = %124
  %128 = load i32, ptr %9, align 4, !tbaa !12
  store i32 %128, ptr %4, align 4
  store i32 1, ptr %11, align 4
  br label %178

129:                                              ; preds = %124
  br label %130

130:                                              ; preds = %129
  %131 = load ptr, ptr %7, align 8, !tbaa !14
  %132 = load ptr, ptr %6, align 8, !tbaa !8
  %133 = call i32 @mbedtls_asn1_write_int(ptr noundef %131, ptr noundef %132, i32 noundef 0)
  store i32 %133, ptr %9, align 4, !tbaa !12
  %134 = icmp slt i32 %133, 0
  br i1 %134, label %135, label %137

135:                                              ; preds = %130
  %136 = load i32, ptr %9, align 4, !tbaa !12
  store i32 %136, ptr %4, align 4
  store i32 1, ptr %11, align 4
  br label %178

137:                                              ; preds = %130
  %138 = load i32, ptr %9, align 4, !tbaa !12
  %139 = sext i32 %138 to i64
  %140 = load i64, ptr %8, align 8, !tbaa !10
  %141 = add i64 %140, %139
  store i64 %141, ptr %8, align 8, !tbaa !10
  br label %142

142:                                              ; preds = %137
  br label %143

143:                                              ; preds = %142
  br label %144

144:                                              ; preds = %143
  br label %145

145:                                              ; preds = %144
  %146 = load ptr, ptr %7, align 8, !tbaa !14
  %147 = load ptr, ptr %6, align 8, !tbaa !8
  %148 = load i64, ptr %8, align 8, !tbaa !10
  %149 = call i32 @mbedtls_asn1_write_len(ptr noundef %146, ptr noundef %147, i64 noundef %148)
  store i32 %149, ptr %9, align 4, !tbaa !12
  %150 = icmp slt i32 %149, 0
  br i1 %150, label %151, label %153

151:                                              ; preds = %145
  %152 = load i32, ptr %9, align 4, !tbaa !12
  store i32 %152, ptr %4, align 4
  store i32 1, ptr %11, align 4
  br label %178

153:                                              ; preds = %145
  %154 = load i32, ptr %9, align 4, !tbaa !12
  %155 = sext i32 %154 to i64
  %156 = load i64, ptr %8, align 8, !tbaa !10
  %157 = add i64 %156, %155
  store i64 %157, ptr %8, align 8, !tbaa !10
  br label %158

158:                                              ; preds = %153
  br label %159

159:                                              ; preds = %158
  br label %160

160:                                              ; preds = %159
  br label %161

161:                                              ; preds = %160
  %162 = load ptr, ptr %7, align 8, !tbaa !14
  %163 = load ptr, ptr %6, align 8, !tbaa !8
  %164 = call i32 @mbedtls_asn1_write_tag(ptr noundef %162, ptr noundef %163, i8 noundef zeroext 48)
  store i32 %164, ptr %9, align 4, !tbaa !12
  %165 = icmp slt i32 %164, 0
  br i1 %165, label %166, label %168

166:                                              ; preds = %161
  %167 = load i32, ptr %9, align 4, !tbaa !12
  store i32 %167, ptr %4, align 4
  store i32 1, ptr %11, align 4
  br label %178

168:                                              ; preds = %161
  %169 = load i32, ptr %9, align 4, !tbaa !12
  %170 = sext i32 %169 to i64
  %171 = load i64, ptr %8, align 8, !tbaa !10
  %172 = add i64 %171, %170
  store i64 %172, ptr %8, align 8, !tbaa !10
  br label %173

173:                                              ; preds = %168
  br label %174

174:                                              ; preds = %173
  br label %175

175:                                              ; preds = %174
  %176 = load i64, ptr %8, align 8, !tbaa !10
  %177 = trunc i64 %176 to i32
  store i32 %177, ptr %4, align 4
  store i32 1, ptr %11, align 4
  br label %178

178:                                              ; preds = %175, %166, %151, %135, %127
  call void @llvm.lifetime.end.p0(i64 16, ptr %10) #9
  call void @llvm.lifetime.end.p0(i64 4, ptr %9) #9
  call void @llvm.lifetime.end.p0(i64 8, ptr %8) #9
  %179 = load i32, ptr %4, align 4
  ret i32 %179
}