; Function Attrs: nounwind uwtable
define hidden i32 @mbedtls_rsa_write_key(ptr noundef %0, ptr noundef %1, ptr noundef %2) local_unnamed_addr #0 {
  %4 = alloca %struct.mbedtls_mpi, align 8
  call void @llvm.lifetime.start.p0(i64 16, ptr nonnull %4) #14
  call void @mbedtls_mpi_init(ptr noundef nonnull %4) #14
  %5 = call i32 @mbedtls_rsa_export_crt(ptr noundef %0, ptr noundef null, ptr noundef null, ptr noundef nonnull %4)
  %.not = icmp eq i32 %5, 0
  br i1 %.not, label %6, label %58

6:                                                ; preds = %3
  %7 = call i32 @mbedtls_asn1_write_mpi(ptr noundef %2, ptr noundef %1, ptr noundef nonnull %4) #14
  %8 = icmp slt i32 %7, 0
  br i1 %8, label %.thread, label %9

9:                                                ; preds = %6
  %10 = zext nneg i32 %7 to i64
  %11 = call i32 @mbedtls_rsa_export_crt(ptr noundef %0, ptr noundef null, ptr noundef nonnull %4, ptr noundef null)
  %.not90 = icmp eq i32 %11, 0
  br i1 %.not90, label %12, label %58

12:                                               ; preds = %9
  %13 = call i32 @mbedtls_asn1_write_mpi(ptr noundef %2, ptr noundef %1, ptr noundef nonnull %4) #14
  %14 = icmp slt i32 %13, 0
  br i1 %14, label %.thread, label %15

15:                                               ; preds = %12
  %narrow = add nuw i32 %13, %7
  %16 = zext i32 %narrow to i64
  %17 = call i32 @mbedtls_rsa_export_crt(ptr noundef %0, ptr noundef nonnull %4, ptr noundef null, ptr noundef null)
  %.not91 = icmp eq i32 %17, 0
  br i1 %.not91, label %18, label %58

18:                                               ; preds = %15
  %19 = call i32 @mbedtls_asn1_write_mpi(ptr noundef %2, ptr noundef %1, ptr noundef nonnull %4) #14
  %20 = icmp slt i32 %19, 0
  br i1 %20, label %.thread, label %21

21:                                               ; preds = %18
  %22 = zext nneg i32 %19 to i64
  %23 = add nuw nsw i64 %22, %16
  %24 = call i32 @mbedtls_rsa_export(ptr noundef %0, ptr noundef null, ptr noundef null, ptr noundef nonnull %4, ptr noundef null, ptr noundef null)
  %.not92 = icmp eq i32 %24, 0
  br i1 %.not92, label %25, label %58

25:                                               ; preds = %21
  %26 = call i32 @mbedtls_asn1_write_mpi(ptr noundef %2, ptr noundef %1, ptr noundef nonnull %4) #14
  %27 = icmp slt i32 %26, 0
  br i1 %27, label %.thread, label %28

28:                                               ; preds = %25
  %29 = zext nneg i32 %26 to i64
  %30 = add nuw nsw i64 %23, %29
  %31 = call i32 @mbedtls_rsa_export(ptr noundef %0, ptr noundef null, ptr noundef nonnull %4, ptr noundef null, ptr noundef null, ptr noundef null)
  %.not93 = icmp eq i32 %31, 0
  br i1 %.not93, label %32, label %58

32:                                               ; preds = %28
  %33 = call i32 @mbedtls_asn1_write_mpi(ptr noundef %2, ptr noundef %1, ptr noundef nonnull %4) #14
  %34 = icmp slt i32 %33, 0
  br i1 %34, label %.thread, label %35

35:                                               ; preds = %32
  %36 = zext nneg i32 %33 to i64
  %37 = add nuw nsw i64 %30, %36
  %38 = call i32 @mbedtls_rsa_export(ptr noundef %0, ptr noundef null, ptr noundef null, ptr noundef null, ptr noundef nonnull %4, ptr noundef null)
  %.not94 = icmp eq i32 %38, 0
  br i1 %.not94, label %39, label %58

39:                                               ; preds = %35
  %40 = call i32 @mbedtls_asn1_write_mpi(ptr noundef %2, ptr noundef %1, ptr noundef nonnull %4) #14
  %41 = icmp slt i32 %40, 0
  br i1 %41, label %.thread, label %42

42:                                               ; preds = %39
  %43 = zext nneg i32 %40 to i64
  %44 = add nuw nsw i64 %37, %43
  %45 = call i32 @mbedtls_rsa_export(ptr noundef %0, ptr noundef null, ptr noundef null, ptr noundef null, ptr noundef null, ptr noundef nonnull %4)
  %.not95 = icmp eq i32 %45, 0
  br i1 %.not95, label %46, label %58

46:                                               ; preds = %42
  %47 = call i32 @mbedtls_asn1_write_mpi(ptr noundef %2, ptr noundef %1, ptr noundef nonnull %4) #14
  %48 = icmp slt i32 %47, 0
  br i1 %48, label %.thread, label %49

49:                                               ; preds = %46
  %50 = zext nneg i32 %47 to i64
  %51 = add nuw nsw i64 %44, %50
  %52 = call i32 @mbedtls_rsa_export(ptr noundef %0, ptr noundef nonnull %4, ptr noundef null, ptr noundef null, ptr noundef null, ptr noundef null)
  %.not96 = icmp eq i32 %52, 0
  br i1 %.not96, label %53, label %58

53:                                               ; preds = %49
  %54 = call i32 @mbedtls_asn1_write_mpi(ptr noundef %2, ptr noundef %1, ptr noundef nonnull %4) #14
  %55 = icmp slt i32 %54, 0
  br i1 %55, label %.thread, label %.thread99

.thread99:                                        ; preds = %53
  %56 = zext nneg i32 %54 to i64
  %57 = add nuw nsw i64 %51, %56
  call void @mbedtls_mpi_free(ptr noundef nonnull %4) #14
  br label %60

.thread:                                          ; preds = %6, %12, %18, %25, %32, %39, %46, %53
  %.0.ph = phi i32 [ %54, %53 ], [ %47, %46 ], [ %40, %39 ], [ %33, %32 ], [ %26, %25 ], [ %19, %18 ], [ %13, %12 ], [ %7, %6 ]
  call void @mbedtls_mpi_free(ptr noundef nonnull %4) #14
  br label %75

58:                                               ; preds = %49, %42, %35, %28, %21, %15, %9, %3
  %.059 = phi i64 [ 0, %3 ], [ %10, %9 ], [ %16, %15 ], [ %23, %21 ], [ %30, %28 ], [ %37, %35 ], [ %44, %42 ], [ %51, %49 ]
  %.0 = phi i32 [ %5, %3 ], [ %11, %9 ], [ %17, %15 ], [ %24, %21 ], [ %31, %28 ], [ %38, %35 ], [ %45, %42 ], [ %52, %49 ]
  call void @mbedtls_mpi_free(ptr noundef nonnull %4) #14
  %59 = icmp slt i32 %.0, 0
  br i1 %59, label %75, label %60

60:                                               ; preds = %.thread99, %58
  %.059102 = phi i64 [ %57, %.thread99 ], [ %.059, %58 ]
  %61 = call i32 @mbedtls_asn1_write_int(ptr noundef %2, ptr noundef %1, i32 noundef 0) #14
  %62 = icmp slt i32 %61, 0
  br i1 %62, label %75, label %63

63:                                               ; preds = %60
  %64 = zext nneg i32 %61 to i64
  %65 = add nuw nsw i64 %.059102, %64
  %66 = call i32 @mbedtls_asn1_write_len(ptr noundef %2, ptr noundef %1, i64 noundef %65) #14
  %67 = icmp slt i32 %66, 0
  br i1 %67, label %75, label %68

68:                                               ; preds = %63
  %69 = call i32 @mbedtls_asn1_write_tag(ptr noundef %2, ptr noundef %1, i8 noundef zeroext 48) #14
  %70 = icmp slt i32 %69, 0
  br i1 %70, label %75, label %71

71:                                               ; preds = %68
  %72 = trunc i64 %65 to i32
  %73 = add i32 %66, %72
  %74 = add i32 %73, %69
  br label %75

75:                                               ; preds = %.thread, %68, %63, %60, %58, %71
  %.060 = phi i32 [ %74, %71 ], [ %.0, %58 ], [ %61, %60 ], [ %66, %63 ], [ %69, %68 ], [ %.0.ph, %.thread ]
  call void @llvm.lifetime.end.p0(i64 16, ptr nonnull %4) #14
  ret i32 %.060
}